target datalayout = "e-m:e-p270:32:32-p271:32:32-p272:64:64-i64:64-i128:128-f80:128-n8:16:32:64-S128"
target triple = "x86_64-pc-linux-gnu"

; Function Attrs: mustprogress nounwind uwtable
define noundef i32 @_Z9strnicompPKcS0_m(ptr noundef %0, ptr noundef %1, i64 noundef %2) #0 {
  %4 = alloca i32, align 4
  %5 = alloca ptr, align 8
  %6 = alloca ptr, align 8
  %7 = alloca i64, align 8
  store ptr %0, ptr %5, align 8
  store ptr %1, ptr %6, align 8
  store i64 %2, ptr %7, align 8
  %8 = load i64, ptr %7, align 8
  %9 = icmp eq i64 %8, 0
  br i1 %9, label %10, label %11

10:                                               ; preds = %3
  store i32 0, ptr %4, align 4
  br label %42

11:                                               ; preds = %3
  br label %12

12:                                               ; preds = %32, %11
  %13 = load ptr, ptr %5, align 8
  %14 = load i8, ptr %13, align 1
  %15 = sext i8 %14 to i32
  %16 = call i32 @toupper(i32 noundef %15) #5
  %17 = load ptr, ptr %6, align 8
  %18 = load i8, ptr %17, align 1
  %19 = sext i8 %18 to i32
  %20 = call i32 @toupper(i32 noundef %19) #5
  %21 = icmp eq i32 %16, %20
  br i1 %21, label %22, label %37

22:                                               ; preds = %12
  %23 = load ptr, ptr %5, align 8
  %24 = load i8, ptr %23, align 1
  %25 = sext i8 %24 to i32
  %26 = icmp eq i32 %25, 0
  br i1 %26, label %31, label %27

27:                                               ; preds = %22
  %28 = load i64, ptr %7, align 8
  %29 = add i64 %28, -1
  store i64 %29, ptr %7, align 8
  %30 = icmp eq i64 %29, 0
  br i1 %30, label %31, label %32

31:                                               ; preds = %27, %22
  store i32 0, ptr %4, align 4
  br label %42

32:                                               ; preds = %27
  %33 = load ptr, ptr %5, align 8
  %34 = getelementptr inbounds i8, ptr %33, i32 1
  store ptr %34, ptr %5, align 8
  %35 = load ptr, ptr %6, align 8
  %36 = getelementptr inbounds i8, ptr %35, i32 1
  store ptr %36, ptr %6, align 8
  br label %12, !llvm.loop !7

37:                                               ; preds = %12
  %38 = load ptr, ptr %5, align 8
  %39 = load ptr, ptr %6, align 8
  %40 = icmp ult ptr %38, %39
  %41 = select i1 %40, i32 -1, i32 1
  store i32 %41, ptr %4, align 4
  br label %42

42:                                               ; preds = %37, %31, %10
  %43 = load i32, ptr %4, align 4
  ret i32 %43
}