; Function Attrs: mustprogress nofree nounwind willreturn memory(read) uwtable
define noundef i32 @_Z9strnicompPKcS0_m(ptr noundef readonly %0, ptr noundef readonly %1, i64 noundef %2) local_unnamed_addr #4 {
  %4 = icmp eq i64 %2, 0
  br i1 %4, label %.loopexit, label %.preheader

.preheader:                                       ; preds = %3
  %5 = load i8, ptr %0, align 1
  %6 = sext i8 %5 to i32
  %7 = tail call i32 @toupper(i32 noundef %6) #17
  %8 = load i8, ptr %1, align 1
  %9 = sext i8 %8 to i32
  %10 = tail call i32 @toupper(i32 noundef %9) #17
  %11 = icmp eq i32 %7, %10
  br i1 %11, label %.lr.ph, label %._crit_edge

.lr.ph:                                           ; preds = %.preheader, %17
  %12 = phi i8 [ %20, %17 ], [ %5, %.preheader ]
  %.018 = phi i64 [ %15, %17 ], [ %2, %.preheader ]
  %.0917 = phi ptr [ %19, %17 ], [ %1, %.preheader ]
  %.01016 = phi ptr [ %18, %17 ], [ %0, %.preheader ]
  %13 = icmp eq i8 %12, 0
  br i1 %13, label %.loopexit, label %14

14:                                               ; preds = %.lr.ph
  %15 = add i64 %.018, -1
  %16 = icmp eq i64 %15, 0
  br i1 %16, label %.loopexit, label %17

17:                                               ; preds = %14
  %18 = getelementptr inbounds i8, ptr %.01016, i64 1
  %19 = getelementptr inbounds i8, ptr %.0917, i64 1
  %20 = load i8, ptr %18, align 1
  %21 = sext i8 %20 to i32
  %22 = tail call i32 @toupper(i32 noundef %21) #17
  %23 = load i8, ptr %19, align 1
  %24 = sext i8 %23 to i32
  %25 = tail call i32 @toupper(i32 noundef %24) #17
  %26 = icmp eq i32 %22, %25
  br i1 %26, label %.lr.ph, label %._crit_edge, !llvm.loop !7

._crit_edge:                                      ; preds = %17, %.preheader
  %.010.lcssa = phi ptr [ %0, %.preheader ], [ %18, %17 ]
  %.09.lcssa = phi ptr [ %1, %.preheader ], [ %19, %17 ]
  %27 = icmp ult ptr %.010.lcssa, %.09.lcssa
  %28 = select i1 %27, i32 -1, i32 1
  br label %.loopexit

.loopexit:                                        ; preds = %.lr.ph, %14, %3, %._crit_edge
  %.011 = phi i32 [ %28, %._crit_edge ], [ 0, %3 ], [ 0, %14 ], [ 0, %.lr.ph ]
  ret i32 %.011
}